target datalayout = "e-m:e-p270:32:32-p271:32:32-p272:64:64-i64:64-i128:128-f80:128-n8:16:32:64-S128"
target triple = "x86_64-pc-linux-gnu"

%"class.icu_77::UMutex" = type { [40 x i8], %"struct.std::atomic", ptr }
%"struct.std::atomic" = type { %"struct.std::__atomic_base" }
%"struct.std::__atomic_base" = type { ptr }
%struct.UConverterSharedData = type { i32, i32, ptr, ptr, i8, i8, ptr, i32, %struct.UConverterMBCSTable }
%struct.UConverterMBCSTable = type { i8, i8, i8, i32, ptr, ptr, ptr, ptr, ptr, ptr, [64 x i16], ptr, ptr, i32, i8, i8, i8, i16, i32, ptr, ptr, ptr, ptr }
%struct.UConverterLoadArgs = type { i32, i32, i8, i8, i16, i32, ptr, ptr, ptr }
%struct.UConverterImpl = type { i32, ptr, ptr, ptr, ptr, ptr, ptr, ptr, ptr, ptr, ptr, ptr, ptr, ptr, ptr, ptr, ptr, ptr }
%struct.UConverterNamePieces = type { [60 x i8], [157 x i8], i32 }
%struct.UConverter = type { ptr, ptr, ptr, ptr, ptr, ptr, ptr, i32, i8, i8, i8, i8, i8, [7 x i8], i32, i32, i32, i32, i8, i8, i8, i8, i8, i8, i8, i8, [8 x i8], [32 x i8], [2 x i16], [2 x i16], [32 x i16], i32, [19 x i16], [31 x i8], i8, i8, i8, i32 }

@_ZL13cnvCacheMutex = internal global %"class.icu_77::UMutex" zeroinitializer, align 8

; Function Attrs: mustprogress uwtable
define internal noundef signext i8 @_ZL30ucnv_deleteSharedConverterDataP20UConverterSharedData(ptr noundef %0) #0 {
  %2 = alloca i8, align 1
  %3 = alloca ptr, align 8
  %4 = alloca ptr, align 8
  store ptr %0, ptr %3, align 8, !tbaa !18
  %5 = load ptr, ptr %3, align 8, !tbaa !18
  %6 = getelementptr inbounds nuw %struct.UConverterSharedData, ptr %5, i32 0, i32 1
  %7 = load i32, ptr %6, align 4, !tbaa !21
  %8 = icmp ugt i32 %7, 0
  br i1 %8, label %9, label %10

9:                                                ; preds = %1
  store i8 0, ptr %2, align 1
  br label %36

10:                                               ; preds = %1
  %11 = load ptr, ptr %3, align 8, !tbaa !18
  %12 = getelementptr inbounds nuw %struct.UConverterSharedData, ptr %11, i32 0, i32 6
  %13 = load ptr, ptr %12, align 8, !tbaa !34
  %14 = getelementptr inbounds nuw %struct.UConverterImpl, ptr %13, i32 0, i32 2
  %15 = load ptr, ptr %14, align 8, !tbaa !35
  %16 = icmp ne ptr %15, null
  br i1 %16, label %17, label %24

17:                                               ; preds = %10
  %18 = load ptr, ptr %3, align 8, !tbaa !18
  %19 = getelementptr inbounds nuw %struct.UConverterSharedData, ptr %18, i32 0, i32 6
  %20 = load ptr, ptr %19, align 8, !tbaa !34
  %21 = getelementptr inbounds nuw %struct.UConverterImpl, ptr %20, i32 0, i32 2
  %22 = load ptr, ptr %21, align 8, !tbaa !35
  %23 = load ptr, ptr %3, align 8, !tbaa !18
  call void %22(ptr noundef %23)
  br label %24

24:                                               ; preds = %17, %10
  %25 = load ptr, ptr %3, align 8, !tbaa !18
  %26 = getelementptr inbounds nuw %struct.UConverterSharedData, ptr %25, i32 0, i32 2
  %27 = load ptr, ptr %26, align 8, !tbaa !38
  %28 = icmp ne ptr %27, null
  br i1 %28, label %29, label %34

29:                                               ; preds = %24
  call void @llvm.lifetime.start.p0(i64 8, ptr %4) #12
  %30 = load ptr, ptr %3, align 8, !tbaa !18
  %31 = getelementptr inbounds nuw %struct.UConverterSharedData, ptr %30, i32 0, i32 2
  %32 = load ptr, ptr %31, align 8, !tbaa !38
  store ptr %32, ptr %4, align 8, !tbaa !29
  %33 = load ptr, ptr %4, align 8, !tbaa !29
  call void @udata_close_77(ptr noundef %33)
  call void @llvm.lifetime.end.p0(i64 8, ptr %4) #12
  br label %34

34:                                               ; preds = %29, %24
  %35 = load ptr, ptr %3, align 8, !tbaa !18
  call void @uprv_free_77(ptr noundef %35)
  store i8 1, ptr %2, align 1
  br label %36

36:                                               ; preds = %34, %9
  %37 = load i8, ptr %2, align 1
  ret i8 %37
}

; Function Attrs: mustprogress uwtable
define void @ucnv_unload_77(ptr noundef %0) #0 {
  %2 = alloca ptr, align 8
  store ptr %0, ptr %2, align 8, !tbaa !18
  %3 = load ptr, ptr %2, align 8, !tbaa !18
  %4 = icmp ne ptr %3, null
  br i1 %4, label %5, label %30

5:                                                ; preds = %1
  %6 = load ptr, ptr %2, align 8, !tbaa !18
  %7 = getelementptr inbounds nuw %struct.UConverterSharedData, ptr %6, i32 0, i32 1
  %8 = load i32, ptr %7, align 4, !tbaa !21
  %9 = icmp ugt i32 %8, 0
  br i1 %9, label %10, label %15

10:                                               ; preds = %5
  %11 = load ptr, ptr %2, align 8, !tbaa !18
  %12 = getelementptr inbounds nuw %struct.UConverterSharedData, ptr %11, i32 0, i32 1
  %13 = load i32, ptr %12, align 4, !tbaa !21
  %14 = add i32 %13, -1
  store i32 %14, ptr %12, align 4, !tbaa !21
  br label %15

15:                                               ; preds = %10, %5
  %16 = load ptr, ptr %2, align 8, !tbaa !18
  %17 = getelementptr inbounds nuw %struct.UConverterSharedData, ptr %16, i32 0, i32 1
  %18 = load i32, ptr %17, align 4, !tbaa !21
  %19 = icmp ule i32 %18, 0
  br i1 %19, label %20, label %29

20:                                               ; preds = %15
  %21 = load ptr, ptr %2, align 8, !tbaa !18
  %22 = getelementptr inbounds nuw %struct.UConverterSharedData, ptr %21, i32 0, i32 4
  %23 = load i8, ptr %22, align 8, !tbaa !32
  %24 = sext i8 %23 to i32
  %25 = icmp eq i32 %24, 0
  br i1 %25, label %26, label %29

26:                                               ; preds = %20
  %27 = load ptr, ptr %2, align 8, !tbaa !18
  %28 = call noundef signext i8 @_ZL30ucnv_deleteSharedConverterDataP20UConverterSharedData(ptr noundef %27)
  br label %29

29:                                               ; preds = %26, %20, %15
  br label %30

30:                                               ; preds = %29, %1
  ret void
}

; Function Attrs: mustprogress uwtable
define void @ucnv_unloadSharedDataIfReady_77(ptr noundef %0) #0 {
  %2 = alloca ptr, align 8
  store ptr %0, ptr %2, align 8, !tbaa !18
  %3 = load ptr, ptr %2, align 8, !tbaa !18
  %4 = icmp ne ptr %3, null
  br i1 %4, label %5, label %12

5:                                                ; preds = %1
  %6 = load ptr, ptr %2, align 8, !tbaa !18
  %7 = getelementptr inbounds nuw %struct.UConverterSharedData, ptr %6, i32 0, i32 5
  %8 = load i8, ptr %7, align 1, !tbaa !39
  %9 = icmp ne i8 %8, 0
  br i1 %9, label %10, label %12

10:                                               ; preds = %5
  call void @umtx_lock_77(ptr noundef @_ZL13cnvCacheMutex)
  %11 = load ptr, ptr %2, align 8, !tbaa !18
  call void @ucnv_unload_77(ptr noundef %11)
  call void @umtx_unlock_77(ptr noundef @_ZL13cnvCacheMutex)
  br label %12

12:                                               ; preds = %10, %5, %1
  ret void
}

; Function Attrs: inlinehint mustprogress nounwind uwtable
define internal noundef signext i8 @_ZL9U_SUCCESS10UErrorCode(i32 noundef %0) #3 {
  %2 = alloca i32, align 4
  store i32 %0, ptr %2, align 4, !tbaa !9
  %3 = load i32, ptr %2, align 4, !tbaa !9
  %4 = icmp sle i32 %3, 0
  %5 = zext i1 %4 to i8
  ret i8 %5
}

; Function Attrs: mustprogress uwtable
define signext i8 @ucnv_canCreateConverter_77(ptr noundef %0, ptr noundef %1) #0 {
  %3 = alloca ptr, align 8
  %4 = alloca ptr, align 8
  %5 = alloca %struct.UConverter, align 8
  %6 = alloca %struct.UConverterNamePieces, align 4
  %7 = alloca %struct.UConverterLoadArgs, align 8
  %8 = alloca ptr, align 8
  store ptr %0, ptr %3, align 8, !tbaa !31
  store ptr %1, ptr %4, align 8, !tbaa !8
  call void @llvm.lifetime.start.p0(i64 288, ptr %5) #12
  call void @llvm.lifetime.start.p0(i64 224, ptr %6) #12
  call void @llvm.lifetime.start.p0(i64 40, ptr %7) #12
  call void @llvm.memset.p0.i64(ptr align 8 %7, i8 0, i64 40, i1 false)
  %9 = getelementptr inbounds %struct.UConverterLoadArgs, ptr %7, i32 0, i32 0
  store i32 40, ptr %9, align 8
  call void @llvm.lifetime.start.p0(i64 8, ptr %8) #12
  %10 = load ptr, ptr %4, align 8, !tbaa !8
  %11 = load i32, ptr %10, align 4, !tbaa !9
  %12 = call noundef signext i8 @_ZL9U_SUCCESS10UErrorCode(i32 noundef %11)
  %13 = icmp ne i8 %12, 0
  br i1 %13, label %14, label %23

14:                                               ; preds = %2
  %15 = getelementptr inbounds nuw %struct.UConverterLoadArgs, ptr %7, i32 0, i32 2
  store i8 1, ptr %15, align 8, !tbaa !20
  %16 = load ptr, ptr %3, align 8, !tbaa !31
  %17 = load ptr, ptr %4, align 8, !tbaa !8
  %18 = call ptr @ucnv_loadSharedData_77(ptr noundef %16, ptr noundef %6, ptr noundef %7, ptr noundef %17)
  store ptr %18, ptr %8, align 8, !tbaa !18
  %19 = load ptr, ptr %8, align 8, !tbaa !18
  %20 = load ptr, ptr %4, align 8, !tbaa !8
  %21 = call ptr @ucnv_createConverterFromSharedData_77(ptr noundef %5, ptr noundef %19, ptr noundef %7, ptr noundef %20)
  %22 = load ptr, ptr %8, align 8, !tbaa !18
  call void @ucnv_unloadSharedDataIfReady_77(ptr noundef %22)
  br label %23

23:                                               ; preds = %14, %2
  %24 = load ptr, ptr %4, align 8, !tbaa !8
  %25 = load i32, ptr %24, align 4, !tbaa !9
  %26 = call noundef signext i8 @_ZL9U_SUCCESS10UErrorCode(i32 noundef %25)
  call void @llvm.lifetime.end.p0(i64 8, ptr %8) #12
  call void @llvm.lifetime.end.p0(i64 40, ptr %7) #12
  call void @llvm.lifetime.end.p0(i64 224, ptr %6) #12
  call void @llvm.lifetime.end.p0(i64 288, ptr %5) #12
  ret i8 %26
}