; Function Attrs: mustprogress uwtable
define signext range(i8 0, 2) i8 @ucnv_canCreateConverter_77(ptr noundef %0, ptr noundef %1) local_unnamed_addr #0 {
  %3 = alloca %struct.UConverter, align 8
  %4 = alloca %struct.UConverterNamePieces, align 4
  %5 = alloca %struct.UConverterLoadArgs, align 8
  call void @llvm.lifetime.start.p0(i64 288, ptr nonnull %3) #11
  call void @llvm.lifetime.start.p0(i64 224, ptr nonnull %4) #11
  call void @llvm.lifetime.start.p0(i64 40, ptr nonnull %5) #11
  call void @llvm.memset.p0.i64(ptr noundef nonnull align 8 dereferenceable(40) %5, i8 0, i64 40, i1 false)
  store i32 40, ptr %5, align 8
  %6 = load i32, ptr %1, align 4, !tbaa !13
  %7 = icmp sgt i32 %6, 0
  br i1 %7, label %ucnv_unloadSharedDataIfReady_77.exit, label %8

8:                                                ; preds = %2
  %9 = getelementptr inbounds nuw i8, ptr %5, i64 8
  store i8 1, ptr %9, align 8, !tbaa !21
  %10 = call ptr @ucnv_loadSharedData_77(ptr noundef %0, ptr noundef nonnull %4, ptr noundef nonnull %5, ptr noundef nonnull %1)
  %11 = call ptr @ucnv_createConverterFromSharedData_77(ptr noundef nonnull %3, ptr noundef %10, ptr noundef nonnull %5, ptr noundef nonnull %1)
  %.not.i = icmp eq ptr %10, null
  br i1 %.not.i, label %ucnv_unloadSharedDataIfReady_77.exit, label %12

12:                                               ; preds = %8
  %13 = getelementptr inbounds nuw i8, ptr %10, i64 25
  %14 = load i8, ptr %13, align 1, !tbaa !34
  %.not3.i = icmp eq i8 %14, 0
  br i1 %.not3.i, label %ucnv_unloadSharedDataIfReady_77.exit, label %15

15:                                               ; preds = %12
  call void @umtx_lock_77(ptr noundef nonnull @_ZL13cnvCacheMutex)
  %16 = getelementptr inbounds nuw i8, ptr %10, i64 4
  %17 = load i32, ptr %16, align 4, !tbaa !22
  %.not7.i.i = icmp eq i32 %17, 0
  br i1 %.not7.i.i, label %.thread.i.i, label %18

18:                                               ; preds = %15
  %19 = add i32 %17, -1
  store i32 %19, ptr %16, align 4, !tbaa !22
  %20 = icmp eq i32 %19, 0
  br i1 %20, label %.thread.i.i, label %ucnv_unload_77.exit.i

.thread.i.i:                                      ; preds = %18, %15
  %21 = getelementptr inbounds nuw i8, ptr %10, i64 24
  %22 = load i8, ptr %21, align 8, !tbaa !37
  %23 = icmp eq i8 %22, 0
  br i1 %23, label %24, label %ucnv_unload_77.exit.i

24:                                               ; preds = %.thread.i.i
  %25 = getelementptr inbounds nuw i8, ptr %10, i64 32
  %26 = load ptr, ptr %25, align 8, !tbaa !39
  %27 = getelementptr inbounds nuw i8, ptr %26, i64 16
  %28 = load ptr, ptr %27, align 8, !tbaa !43
  %.not10.i.i.i = icmp eq ptr %28, null
  br i1 %.not10.i.i.i, label %30, label %29

29:                                               ; preds = %24
  call void %28(ptr noundef nonnull %10)
  br label %30

30:                                               ; preds = %29, %24
  %31 = getelementptr inbounds nuw i8, ptr %10, i64 8
  %32 = load ptr, ptr %31, align 8, !tbaa !38
  %.not11.i.i.i = icmp eq ptr %32, null
  br i1 %.not11.i.i.i, label %_ZL30ucnv_deleteSharedConverterDataP20UConverterSharedData.exit.i.i, label %33

33:                                               ; preds = %30
  call void @udata_close_77(ptr noundef nonnull %32)
  br label %_ZL30ucnv_deleteSharedConverterDataP20UConverterSharedData.exit.i.i

_ZL30ucnv_deleteSharedConverterDataP20UConverterSharedData.exit.i.i: ; preds = %33, %30
  call void @uprv_free_77(ptr noundef nonnull %10)
  br label %ucnv_unload_77.exit.i

ucnv_unload_77.exit.i:                            ; preds = %_ZL30ucnv_deleteSharedConverterDataP20UConverterSharedData.exit.i.i, %.thread.i.i, %18
  call void @umtx_unlock_77(ptr noundef nonnull @_ZL13cnvCacheMutex)
  br label %ucnv_unloadSharedDataIfReady_77.exit

ucnv_unloadSharedDataIfReady_77.exit:             ; preds = %ucnv_unload_77.exit.i, %12, %8, %2
  %34 = load i32, ptr %1, align 4, !tbaa !13
  %35 = icmp slt i32 %34, 1
  %36 = zext i1 %35 to i8
  call void @llvm.lifetime.end.p0(i64 40, ptr nonnull %5) #11
  call void @llvm.lifetime.end.p0(i64 224, ptr nonnull %4) #11
  call void @llvm.lifetime.end.p0(i64 288, ptr nonnull %3) #11
  ret i8 %36
}